Certificate:
    Data:
        Version: 3 (0x2)
        Serial Number: 4096 (0x1000)
    Signature Algorithm: sha1WithRSAEncryption
        Issuer: C=UK, ST=London, L=London, O=Aerospike, OU=Ansible Deployment, CN=aerospike_ansible_demo_ca/emailAddress=demo@aerospike.com
        Validity
            Not Before: Apr 24 13:52:35 2020 GMT
            Not After : Apr 24 13:52:35 2021 GMT
        Subject: C=UK, ST=London, L=London, O=Aerospike, OU=Ansible Deployment, CN=aerospike_ansible_demo_cluster/emailAddress=demo@aerospike.com
        Subject Public Key Info:
            Public Key Algorithm: rsaEncryption
                Public-Key: (2048 bit)
                Modulus:
                    00:e8:b3:2a:d6:f9:bb:5a:45:22:2b:08:9a:e5:11:
                    74:56:ee:ca:cb:d7:8f:94:4a:3f:ff:cd:b3:6f:7e:
                    5f:66:e0:25:32:de:1a:95:85:f6:8c:05:f2:f1:85:
                    fd:79:53:ba:36:77:9d:86:a5:73:4e:41:d6:a5:34:
                    a5:e9:d7:fa:ed:06:ae:38:92:a4:ce:91:bc:85:56:
                    c7:ce:5e:4e:21:22:89:81:f8:ee:7b:1f:21:6a:22:
                    69:1f:3e:b6:ac:43:aa:db:6b:da:05:35:f2:b4:42:
                    68:c0:35:c4:07:66:f9:7b:9b:25:d9:b4:d8:eb:b0:
                    0e:f5:70:3d:57:46:dc:aa:74:9a:10:11:1f:6e:5a:
                    fd:83:1a:6e:f0:7e:61:36:84:2f:b9:1a:14:81:54:
                    16:8e:72:b8:af:95:97:73:01:f0:7a:7a:30:e8:69:
                    24:2d:4d:7e:31:e9:f9:ed:a1:22:f3:3c:ec:1d:d1:
                    87:5f:0d:dd:c7:05:67:72:dd:d8:10:53:c2:da:20:
                    16:bf:44:80:3e:1f:65:a8:f9:8e:f6:ed:f5:42:41:
                    a9:28:b0:ce:15:58:75:13:02:09:8d:3f:9c:de:cd:
                    33:c6:16:30:0b:e8:4d:02:7c:00:08:bf:54:52:4a:
                    bc:2e:18:98:c1:3c:25:65:76:24:41:15:05:be:fe:
                    d6:db
                Exponent: 65537 (0x10001)
        X509v3 extensions:
            X509v3 Basic Constraints: 
                CA:FALSE
            Netscape Comment: 
                OpenSSL Generated Certificate
            X509v3 Subject Key Identifier: 
                A2:72:0C:1A:E2:76:B5:A7:E3:9D:52:98:F5:B3:D5:F1:2C:C7:51:EB
            X509v3 Authority Key Identifier: 
                keyid:DE:E0:73:34:01:81:A1:B8:1C:8F:80:BE:EB:F8:16:48:FA:11:AC:73

    Signature Algorithm: sha1WithRSAEncryption
         18:b7:c8:65:df:41:22:c6:e6:20:5b:3c:91:32:ab:d7:51:bb:
         b2:39:ed:63:5e:f8:b6:46:c3:fb:49:88:4c:72:c7:80:32:8b:
         7c:d6:d7:af:a7:45:32:4c:ac:6e:bf:e5:d2:11:16:78:fc:7b:
         50:72:83:a9:9c:86:43:13:50:e7:ee:6e:16:92:62:17:ab:c5:
         5c:cf:4b:69:de:aa:89:3c:36:f2:20:83:79:35:5f:5f:ca:55:
         c2:7a:3f:0d:cc:69:43:13:d2:77:b9:19:1e:35:97:f4:dc:1a:
         b6:db:dd:2d:69:77:d6:87:3b:f7:9d:10:10:7f:7f:da:86:76:
         56:ee:c5:9f:b8:d2:d4:d3:f5:29:8c:1d:b0:dc:9b:b2:d3:b6:
         7a:f9:80:ed:c2:2c:e9:25:02:e6:99:3c:b5:63:ad:3a:b6:42:
         0e:bd:ef:53:c5:49:33:16:cb:04:2d:a1:f2:83:8a:0d:44:ee:
         8a:ee:e4:45:cf:6d:ed:d2:a5:b2:ef:fe:9d:5e:de:87:7b:70:
         3c:95:a7:bb:64:68:dd:a8:f5:7d:f3:28:30:4d:6b:a0:38:81:
         80:9e:0b:2b:d0:cc:66:2e:33:f1:cb:ff:82:b7:a3:68:4e:d7:
         ef:4b:3c:50:9f:ec:86:dd:7f:98:75:c8:04:08:10:e4:8d:75:
         6c:7a:70:77
-----BEGIN CERTIFICATE-----
MIIETDCCAzSgAwIBAgICEAAwDQYJKoZIhvcNAQEFBQAwgacxCzAJBgNVBAYTAlVL
MQ8wDQYDVQQIDAZMb25kb24xDzANBgNVBAcMBkxvbmRvbjESMBAGA1UECgwJQWVy
b3NwaWtlMRswGQYDVQQLDBJBbnNpYmxlIERlcGxveW1lbnQxIjAgBgNVBAMMGWFl
cm9zcGlrZV9hbnNpYmxlX2RlbW9fY2ExITAfBgkqhkiG9w0BCQEWEmRlbW9AYWVy
b3NwaWtlLmNvbTAeFw0yMDA0MjQxMzUyMzVaFw0yMTA0MjQxMzUyMzVaMIGsMQsw
CQYDVQQGEwJVSzEPMA0GA1UECAwGTG9uZG9uMQ8wDQYDVQQHDAZMb25kb24xEjAQ
BgNVBAoMCUFlcm9zcGlrZTEbMBkGA1UECwwSQW5zaWJsZSBEZXBsb3ltZW50MScw
JQYDVQQDDB5hZXJvc3Bpa2VfYW5zaWJsZV9kZW1vX2NsdXN0ZXIxITAfBgkqhkiG
9w0BCQEWEmRlbW9AYWVyb3NwaWtlLmNvbTCCASIwDQYJKoZIhvcNAQEBBQADggEP
ADCCAQoCggEBAOizKtb5u1pFIisImuURdFbuysvXj5RKP//Ns29+X2bgJTLeGpWF
9owF8vGF/XlTujZ3nYalc05B1qU0penX+u0GrjiSpM6RvIVWx85eTiEiiYH47nsf
IWoiaR8+tqxDqttr2gU18rRCaMA1xAdm+XubJdm02OuwDvVwPVdG3Kp0mhARH25a
/YMabvB+YTaEL7kaFIFUFo5yuK+Vl3MB8Hp6MOhpJC1NfjHp+e2hIvM87B3Rh18N
3ccFZ3Ld2BBTwtogFr9EgD4fZaj5jvbt9UJBqSiwzhVYdRMCCY0/nN7NM8YWMAvo
TQJ8AAi/VFJKvC4YmME8JWV2JEEVBb7+1tsCAwEAAaN7MHkwCQYDVR0TBAIwADAs
BglghkgBhvhCAQ0EHxYdT3BlblNTTCBHZW5lcmF0ZWQgQ2VydGlmaWNhdGUwHQYD
VR0OBBYEFKJyDBridrWn451SmPWz1fEsx1HrMB8GA1UdIwQYMBaAFN7gczQBgaG4
HI+Avuv4Fkj6EaxzMA0GCSqGSIb3DQEBBQUAA4IBAQAYt8hl30EixuYgWzyRMqvX
UbuyOe1jXvi2RsP7SYhMcseAMot81tevp0UyTKxuv+XSERZ4/HtQcoOpnIZDE1Dn
7m4WkmIXq8Vcz0tp3qqJPDbyIIN5NV9fylXCej8NzGlDE9J3uRkeNZf03Bq2290t
aXfWhzv3nRAQf3/ahnZW7sWfuNLU0/UpjB2w3Juy07Z6+YDtwizpJQLmmTy1Y606
tkIOve9TxUkzFssELaHyg4oNRO6K7uRFz23t0qWy7/6dXt6He3A8lae7ZGjdqPV9
8ygwTWugOIGAngsr0MxmLjPxy/+Ct6NoTtfvSzxQn+yG3X+YdcgECBDkjXVsenB3
-----END CERTIFICATE-----
